Certificate:
    Data:
        Version: 3 (0x2)
        Serial Number: 1 (0x1)
    Signature Algorithm: sha1WithRSAEncryption
        Issuer: DC=org, DC=gallakristof, O=Galla Kristof Inc, OU=Galla Kristof Signing CA, CN=Galla Kristof Signing CA
        Validity
            Not Before: May 17 08:37:11 2017 GMT
            Not After : May 17 08:37:11 2019 GMT
        Subject: DC=org, DC=gallakristof, O=Galla Kristof Inc, CN=Krist\xC3\xB3f Galla
        Subject Public Key Info:
            Public Key Algorithm: rsaEncryption
                Public-Key: (2048 bit)
                Modulus:
                    00:b0:d2:0f:f8:9a:3b:04:db:8e:f2:e7:1f:48:a8:
                    55:03:05:a8:5e:87:cc:78:97:64:67:02:a5:3c:b2:
                    dd:dc:0e:91:30:52:a0:26:e5:bc:61:cc:d8:ef:8a:
                    b1:cf:c5:b0:6f:46:74:45:65:da:58:cd:2e:19:76:
                    cf:8a:05:50:ec:97:b7:dc:a6:05:8e:f7:4c:eb:b3:
                    ce:99:88:ee:2f:e0:2f:ef:e8:2b:f2:43:b3:ff:82:
                    3a:4e:1c:30:84:fc:0e:fa:be:ce:70:76:f7:77:56:
                    bf:c5:c6:32:85:5a:54:76:ea:dd:3a:4c:db:6d:0d:
                    f0:69:fa:1c:85:e8:1c:ba:ba:59:e7:c7:98:f5:72:
                    36:80:75:4f:d0:82:8e:bf:a1:29:1d:e2:28:d4:a3:
                    3f:13:57:d1:5d:be:ab:ba:2f:b7:da:73:a8:af:c5:
                    5a:77:99:7a:70:ec:86:ce:8d:9a:51:e0:c0:04:a2:
                    4a:87:a5:7d:a2:7c:50:08:bc:3d:dc:b4:70:53:b8:
                    6f:b7:fd:e3:32:4d:bb:5a:44:51:02:f0:90:06:b0:
                    b1:08:e9:f2:52:a7:0d:bc:1d:ef:6a:22:5c:24:4b:
                    ea:fa:be:58:e4:5b:85:20:20:07:f1:89:16:c8:ad:
                    7f:e4:74:35:05:b3:af:53:5e:24:19:9d:f8:73:63:
                    f8:cd
                Exponent: 65537 (0x10001)
        X509v3 extensions:
            X509v3 Key Usage: critical
                Digital Signature, Key Encipherment
            X509v3 Basic Constraints: 
                CA:FALSE
            X509v3 Extended Key Usage: 
                E-mail Protection, TLS Web Client Authentication
            X509v3 Subject Key Identifier: 
                34:B3:94:32:1F:66:9B:8F:6B:6F:B4:EC:3A:AE:85:61:35:5A:65:24
            X509v3 Authority Key Identifier: 
                keyid:70:D2:B4:E2:FB:FE:A9:EB:F6:F3:3D:9C:ED:6D:B3:7D:8F:F7:65:79

            X509v3 Subject Alternative Name: 
                email:kristof@gallakristof.org
    Signature Algorithm: sha1WithRSAEncryption
         03:78:0c:a3:1d:d1:40:d8:01:77:7c:86:f8:30:e8:ca:b2:78:
         71:5e:48:80:a3:a1:ca:b6:5e:27:25:1e:33:fb:4c:52:2f:51:
         3e:cf:10:d1:29:fd:45:cc:d0:03:ff:e3:9d:57:aa:cb:f2:f2:
         5c:72:1a:62:9a:6c:e0:48:e2:51:0d:ee:bb:7a:ee:63:b8:d8:
         ce:4f:6b:9b:6b:ef:dc:4a:af:7e:0e:c9:43:2f:a3:c8:8b:58:
         7e:56:46:4a:42:a5:1e:00:08:9c:b7:9e:b9:3c:81:4f:0b:05:
         a5:41:2b:8c:8b:e8:55:cc:80:a7:c9:f9:88:fb:a4:9f:dd:21:
         61:67:b6:19:46:67:61:01:9e:2d:b5:57:56:e5:8f:cc:7f:5e:
         f6:9d:34:a2:be:0e:92:cb:b0:8a:fb:a5:ef:fd:af:11:4a:f9:
         75:95:fe:7d:1a:f1:c5:8e:d3:78:d4:54:4c:d2:88:79:3a:3a:
         fb:ed:27:64:36:09:0a:87:74:23:fe:d4:db:b9:13:f8:bc:00:
         c1:2f:fe:9c:12:93:4a:85:64:ec:96:73:61:38:23:5c:ec:3c:
         b6:8e:cc:b6:3b:3f:48:fa:a4:aa:3b:34:f4:99:c4:6c:ad:7f:
         ce:7e:1c:0a:18:2e:e4:0b:6e:7c:b8:b3:52:7f:06:54:9d:b7:
         80:f6:4d:2d
-----BEGIN CERTIFICATE-----
MIIEHDCCAwSgAwIBAgIBATANBgkqhkiG9w0BAQUFADCBlTETMBEGCgmSJomT8ixk
ARkWA29yZzEcMBoGCgmSJomT8ixkARkWDGdhbGxha3Jpc3RvZjEaMBgGA1UECgwR
R2FsbGEgS3Jpc3RvZiBJbmMxITAfBgNVBAsMGEdhbGxhIEtyaXN0b2YgU2lnbmlu
ZyBDQTEhMB8GA1UEAwwYR2FsbGEgS3Jpc3RvZiBTaWduaW5nIENBMB4XDTE3MDUx
NzA4MzcxMVoXDTE5MDUxNzA4MzcxMVowaDETMBEGCgmSJomT8ixkARkWA29yZzEc
MBoGCgmSJomT8ixkARkWDGdhbGxha3Jpc3RvZjEaMBgGA1UECgwRR2FsbGEgS3Jp
c3RvZiBJbmMxFzAVBgNVBAMMDktyaXN0w7NmIEdhbGxhMIIBIjANBgkqhkiG9w0B
AQEFAAOCAQ8AMIIBCgKCAQEAsNIP+Jo7BNuO8ucfSKhVAwWoXofMeJdkZwKlPLLd
3A6RMFKgJuW8YczY74qxz8Wwb0Z0RWXaWM0uGXbPigVQ7Je33KYFjvdM67POmYju
L+Av7+gr8kOz/4I6ThwwhPwO+r7OcHb3d1a/xcYyhVpUdurdOkzbbQ3wafochegc
urpZ58eY9XI2gHVP0IKOv6EpHeIo1KM/E1fRXb6rui+32nOor8Vad5l6cOyGzo2a
UeDABKJKh6V9onxQCLw93LRwU7hvt/3jMk27WkRRAvCQBrCxCOnyUqcNvB3vaiJc
JEvq+r5Y5FuFICAH8YkWyK1/5HQ1BbOvU14kGZ34c2P4zQIDAQABo4GiMIGfMA4G
A1UdDwEB/wQEAwIFoDAJBgNVHRMEAjAAMB0GA1UdJQQWMBQGCCsGAQUFBwMEBggr
BgEFBQcDAjAdBgNVHQ4EFgQUNLOUMh9mm49rb7TsOq6FYTVaZSQwHwYDVR0jBBgw
FoAUcNK04vv+qev28z2c7W2zfY/3ZXkwIwYDVR0RBBwwGoEYa3Jpc3RvZkBnYWxs
YWtyaXN0b2Yub3JnMA0GCSqGSIb3DQEBBQUAA4IBAQADeAyjHdFA2AF3fIb4MOjK
snhxXkiAo6HKtl4nJR4z+0xSL1E+zxDRKf1FzNAD/+OdV6rL8vJcchpimmzgSOJR
De67eu5juNjOT2uba+/cSq9+DslDL6PIi1h+VkZKQqUeAAict565PIFPCwWlQSuM
i+hVzICnyfmI+6Sf3SFhZ7YZRmdhAZ4ttVdW5Y/Mf172nTSivg6Sy7CK+6Xv/a8R
Svl1lf59GvHFjtN41FRM0oh5Ojr77SdkNgkKh3Qj/tTbuRP4vADBL/6cEpNKhWTs
lnNhOCNc7Dy2jsy2Oz9I+qSqOzT0mcRsrX/OfhwKGC7kC258uLNSfwZUnbeA9k0t
-----END CERTIFICATE-----
