Certificate:
    Data:
        Version: 3 (0x2)
        Serial Number: 1 (0x1)
    Signature Algorithm: sha1WithRSAEncryption
        Issuer: DC=org, DC=gallakristof, O=Galla Kristof Inc, OU=Galla Kristof Root CA, CN=Galla Kristof Root CA
        Validity
            Not Before: May 17 08:00:39 2017 GMT
            Not After : May 17 08:00:39 2027 GMT
        Subject: DC=org, DC=gallakristof, O=Galla Kristof Inc, OU=Galla Kristof Root CA, CN=Galla Kristof Root CA
        Subject Public Key Info:
            Public Key Algorithm: rsaEncryption
                Public-Key: (2048 bit)
                Modulus:
                    00:cb:7a:40:11:2f:1c:56:f4:83:23:7d:03:ee:b6:
                    c9:24:da:97:7e:90:27:08:0a:bb:62:6c:fb:51:8c:
                    7d:50:f5:3d:c2:7d:86:33:7e:21:10:74:1f:a7:8d:
                    de:b8:78:1f:0b:46:61:a4:88:d8:a8:08:64:6f:dc:
                    16:3b:20:45:98:6c:b6:c3:94:1b:4a:0f:4c:e1:d1:
                    6e:a9:ad:2d:2b:be:8e:df:7c:11:34:4f:e2:11:67:
                    f0:26:4d:1d:43:d7:da:ff:43:7b:8f:f7:a4:29:3f:
                    2e:ec:80:01:43:ff:1d:72:79:6c:73:89:df:35:cf:
                    12:11:6a:38:22:95:4c:99:26:a7:e5:52:5f:60:5c:
                    a5:a6:3a:07:b2:0f:08:c7:80:7c:4b:71:a8:de:30:
                    40:ff:44:6b:c2:44:ef:f4:17:3d:a1:c9:37:39:e9:
                    56:48:3e:ca:20:57:61:33:04:55:9a:67:5b:f9:66:
                    85:89:64:3a:e8:2e:4f:cc:43:e1:97:10:e6:24:58:
                    4a:e5:91:72:fd:7a:a0:56:0a:50:22:96:10:42:d3:
                    39:4f:a3:27:de:57:2a:9d:51:ec:ea:56:80:e0:18:
                    6b:dc:06:ab:fb:b1:fa:c5:c2:0e:78:13:e0:07:0a:
                    ba:fb:d1:dd:46:6a:f0:b8:7c:dd:c1:cc:d5:f0:32:
                    2e:df
                Exponent: 65537 (0x10001)
        X509v3 extensions:
            X509v3 Key Usage: critical
                Certificate Sign, CRL Sign
            X509v3 Basic Constraints: critical
                CA:TRUE
            X509v3 Subject Key Identifier: 
                78:18:F0:90:F6:D2:C6:BC:24:73:B5:D1:A1:89:A9:8F:5C:5C:6D:F4
            X509v3 Authority Key Identifier: 
                keyid:78:18:F0:90:F6:D2:C6:BC:24:73:B5:D1:A1:89:A9:8F:5C:5C:6D:F4

    Signature Algorithm: sha1WithRSAEncryption
         3e:12:72:d0:b2:a6:d1:77:8a:32:f9:2f:59:36:e4:67:db:b0:
         86:04:fb:66:af:63:7f:87:b5:6c:98:e2:3b:11:89:c4:42:d2:
         74:ca:f3:61:ae:67:3c:07:48:68:f3:e4:da:fb:b8:8b:1a:4e:
         6e:73:b3:5d:89:ee:45:00:26:b5:03:b2:ad:48:ed:cc:e3:06:
         ef:8a:49:73:aa:6b:ab:a4:44:cc:18:7a:a5:87:a2:18:2a:aa:
         d9:ee:b9:15:0c:7c:d8:09:06:cc:4b:56:40:74:9e:6d:7a:3a:
         9d:cd:b0:b5:02:b3:89:64:ea:b7:55:53:7c:a6:a0:51:3d:bd:
         94:a6:37:7c:e2:96:80:bb:c6:18:be:df:da:b9:60:09:f9:71:
         82:7e:ab:f8:f5:e4:f5:a9:6e:d9:b3:cd:f9:c1:60:b3:23:06:
         4c:04:c3:03:ca:fd:42:82:52:84:a7:5f:ac:66:ac:e2:6a:87:
         c6:88:30:f5:e6:df:eb:60:83:f4:40:b2:1d:61:81:01:01:db:
         23:38:6b:cb:c0:b3:6c:47:69:96:88:f0:42:7b:82:cc:a5:3d:
         01:31:6c:0c:3c:57:07:b5:68:df:a8:33:f7:31:27:51:07:b3:
         86:3b:91:37:6c:0d:65:ca:b1:21:05:65:5c:fc:7f:eb:21:2d:
         97:89:23:f0
-----BEGIN CERTIFICATE-----
MIID/jCCAuagAwIBAgIBATANBgkqhkiG9w0BAQUFADCBjzETMBEGCgmSJomT8ixk
ARkWA29yZzEcMBoGCgmSJomT8ixkARkWDGdhbGxha3Jpc3RvZjEaMBgGA1UECgwR
R2FsbGEgS3Jpc3RvZiBJbmMxHjAcBgNVBAsMFUdhbGxhIEtyaXN0b2YgUm9vdCBD
QTEeMBwGA1UEAwwVR2FsbGEgS3Jpc3RvZiBSb290IENBMB4XDTE3MDUxNzA4MDAz
OVoXDTI3MDUxNzA4MDAzOVowgY8xEzARBgoJkiaJk/IsZAEZFgNvcmcxHDAaBgoJ
kiaJk/IsZAEZFgxnYWxsYWtyaXN0b2YxGjAYBgNVBAoMEUdhbGxhIEtyaXN0b2Yg
SW5jMR4wHAYDVQQLDBVHYWxsYSBLcmlzdG9mIFJvb3QgQ0ExHjAcBgNVBAMMFUdh
bGxhIEtyaXN0b2YgUm9vdCBDQTCCASIwDQYJKoZIhvcNAQEBBQADggEPADCCAQoC
ggEBAMt6QBEvHFb0gyN9A+62ySTal36QJwgKu2Js+1GMfVD1PcJ9hjN+IRB0H6eN
3rh4HwtGYaSI2KgIZG/cFjsgRZhstsOUG0oPTOHRbqmtLSu+jt98ETRP4hFn8CZN
HUPX2v9De4/3pCk/LuyAAUP/HXJ5bHOJ3zXPEhFqOCKVTJkmp+VSX2BcpaY6B7IP
CMeAfEtxqN4wQP9Ea8JE7/QXPaHJNznpVkg+yiBXYTMEVZpnW/lmhYlkOuguT8xD
4ZcQ5iRYSuWRcv16oFYKUCKWEELTOU+jJ95XKp1R7OpWgOAYa9wGq/ux+sXCDngT
4AcKuvvR3UZq8Lh83cHM1fAyLt8CAwEAAaNjMGEwDgYDVR0PAQH/BAQDAgEGMA8G
A1UdEwEB/wQFMAMBAf8wHQYDVR0OBBYEFHgY8JD20sa8JHO10aGJqY9cXG30MB8G
A1UdIwQYMBaAFHgY8JD20sa8JHO10aGJqY9cXG30MA0GCSqGSIb3DQEBBQUAA4IB
AQA+EnLQsqbRd4oy+S9ZNuRn27CGBPtmr2N/h7VsmOI7EYnEQtJ0yvNhrmc8B0ho
8+Ta+7iLGk5uc7Ndie5FACa1A7KtSO3M4wbviklzqmurpETMGHqlh6IYKqrZ7rkV
DHzYCQbMS1ZAdJ5tejqdzbC1ArOJZOq3VVN8pqBRPb2Upjd84paAu8YYvt/auWAJ
+XGCfqv49eT1qW7Zs835wWCzIwZMBMMDyv1CglKEp1+sZqziaofGiDD15t/rYIP0
QLIdYYEBAdsjOGvLwLNsR2mWiPBCe4LMpT0BMWwMPFcHtWjfqDP3MSdRB7OGO5E3
bA1lyrEhBWVc/H/rIS2XiSPw
-----END CERTIFICATE-----
